target datalayout = "e-m:e-p270:32:32-p271:32:32-p272:64:64-i64:64-i128:128-f80:128-n8:16:32:64-S128"
target triple = "x86_64-unknown-linux-gnu"

%struct.NetClientInfo = type { i32, i64, ptr, ptr, ptr, ptr, ptr, ptr, ptr, ptr, ptr, ptr, ptr, ptr, ptr, ptr, ptr, ptr, ptr, ptr, ptr, ptr, ptr, ptr, ptr, ptr, ptr }
%struct.NetClientState = type { ptr, i32, %union.anon, ptr, ptr, ptr, ptr, [256 x i8], i8, ptr, i32, i8, i32, i32, i8, i8, i8, %union.anon.0 }
%union.anon = type { %struct.QTailQLink }
%struct.QTailQLink = type { ptr, ptr }
%union.anon.0 = type { %struct.QTailQLink }
%struct.VhostVDPAState = type { %struct.NetClientState, %struct.vhost_vdpa, %struct.Notifier, ptr, ptr, ptr, i8, i8, i8 }
%struct.vhost_vdpa = type { i32, i32, i32, i8, i32, %struct.MemoryListener, %struct.vhost_vdpa_iova_range, i64, i8, i8, i8, ptr, ptr, ptr, ptr, ptr, ptr, [1024 x %struct.VhostVDPAHostNotifier], %struct.anon, %struct.IOMMUNotifier }
%struct.MemoryListener = type { ptr, ptr, ptr, ptr, ptr, ptr, ptr, ptr, ptr, ptr, ptr, ptr, ptr, ptr, ptr, ptr, ptr, i32, ptr, ptr, %union.anon.1, %union.anon.2 }
%union.anon.1 = type { %struct.QTailQLink }
%union.anon.2 = type { %struct.QTailQLink }
%struct.vhost_vdpa_iova_range = type { i64, i64 }
%struct.VhostVDPAHostNotifier = type { %struct.MemoryRegion, ptr }
%struct.MemoryRegion = type { %struct.Object, i8, i8, i8, i8, i8, i8, i8, i8, i8, i8, ptr, ptr, ptr, ptr, ptr, ptr, i32, i128, i64, ptr, i64, i8, i8, i8, i8, i8, ptr, i64, i32, %union.anon.3, %union.anon.4, %union.anon.5, ptr, i32, ptr, ptr, i8 }
%struct.Object = type { ptr, ptr, ptr, i32, ptr }
%union.anon.3 = type { %struct.QTailQLink }
%union.anon.4 = type { %struct.QTailQLink }
%union.anon.5 = type { %struct.QTailQLink }
%struct.anon = type { ptr }
%struct.IOMMUNotifier = type { ptr, i32, i64, i64, i32, %struct.anon.6 }
%struct.anon.6 = type { ptr, ptr }
%struct.Notifier = type { ptr, %struct.anon.7 }
%struct.anon.7 = type { ptr, ptr }
%struct.vhost_dev = type { ptr, %struct.MemoryListener, %struct.MemoryListener, ptr, i32, ptr, i32, ptr, ptr, i32, i32, i32, i32, i64, i64, i64, i64, i64, i64, i8, i8, i64, ptr, ptr, ptr, ptr, %struct.anon.11, %struct.anon.12, %struct.IOMMUNotifier, ptr }
%struct.anon.11 = type { ptr, ptr }
%struct.anon.12 = type { ptr }
%union.anon.17 = type { ptr }

@.str = private unnamed_addr constant [47 x i8] c"nc->info->type == NET_CLIENT_DRIVER_VHOST_VDPA\00", align 1
@.str.1 = private unnamed_addr constant [25 x i8] c"../qemu/net/vhost-vdpa.c\00", align 1
@__PRETTY_FUNCTION__.vhost_vdpa_net_client_stop = private unnamed_addr constant [50 x i8] c"void vhost_vdpa_net_client_stop(NetClientState *)\00", align 1

; Function Attrs: nounwind sspstrong uwtable
define internal void @vhost_vdpa_net_client_stop(ptr noundef %nc) #0 {
entry:
  %nc.addr = alloca ptr, align 8
  %s = alloca ptr, align 8
  %tmp = alloca ptr, align 8
  %__mptr = alloca ptr, align 8
  %tmp1 = alloca ptr, align 8
  %dev = alloca ptr, align 8
  %_pp = alloca %union.anon.17, align 8
  %_p = alloca ptr, align 8
  %_destroy = alloca ptr, align 8
  store ptr %nc, ptr %nc.addr, align 8
  %0 = load ptr, ptr %nc.addr, align 8
  store ptr %0, ptr %__mptr, align 8
  %1 = load ptr, ptr %__mptr, align 8
  %add.ptr = getelementptr i8, ptr %1, i64 0
  store ptr %add.ptr, ptr %tmp1, align 8
  %2 = load ptr, ptr %tmp1, align 8
  store ptr %2, ptr %tmp, align 8
  %3 = load ptr, ptr %tmp, align 8
  store ptr %3, ptr %s, align 8
  %4 = load ptr, ptr %nc.addr, align 8
  %info = getelementptr inbounds %struct.NetClientState, ptr %4, i32 0, i32 0
  %5 = load ptr, ptr %info, align 8
  %type = getelementptr inbounds %struct.NetClientInfo, ptr %5, i32 0, i32 0
  %6 = load i32, ptr %type, align 8
  %cmp = icmp eq i32 %6, 13
  br i1 %cmp, label %if.then, label %if.else

if.then:                                          ; preds = %entry
  br label %if.end

if.else:                                          ; preds = %entry
  call void @__assert_fail(ptr noundef @.str, ptr noundef @.str.1, i32 noundef 408, ptr noundef @__PRETTY_FUNCTION__.vhost_vdpa_net_client_stop) #10
  unreachable

if.end:                                           ; preds = %if.then
  %7 = load ptr, ptr %s, align 8
  %vhost_vdpa = getelementptr inbounds %struct.VhostVDPAState, ptr %7, i32 0, i32 1
  %index = getelementptr inbounds %struct.vhost_vdpa, ptr %vhost_vdpa, i32 0, i32 1
  %8 = load i32, ptr %index, align 4
  %cmp2 = icmp eq i32 %8, 0
  br i1 %cmp2, label %if.then3, label %if.end4

if.then3:                                         ; preds = %if.end
  %9 = load ptr, ptr %s, align 8
  %migration_state = getelementptr inbounds %struct.VhostVDPAState, ptr %9, i32 0, i32 2
  call void @migration_remove_notifier(ptr noundef %migration_state)
  br label %if.end4

if.end4:                                          ; preds = %if.then3, %if.end
  %10 = load ptr, ptr %s, align 8
  %vhost_vdpa5 = getelementptr inbounds %struct.VhostVDPAState, ptr %10, i32 0, i32 1
  %dev6 = getelementptr inbounds %struct.vhost_vdpa, ptr %vhost_vdpa5, i32 0, i32 15
  %11 = load ptr, ptr %dev6, align 8
  store ptr %11, ptr %dev, align 8
  %12 = load ptr, ptr %dev, align 8
  %vq_index = getelementptr inbounds %struct.vhost_dev, ptr %12, i32 0, i32 10
  %13 = load i32, ptr %vq_index, align 4
  %14 = load ptr, ptr %dev, align 8
  %nvqs = getelementptr inbounds %struct.vhost_dev, ptr %14, i32 0, i32 9
  %15 = load i32, ptr %nvqs, align 8
  %add = add i32 %13, %15
  %16 = load ptr, ptr %dev, align 8
  %vq_index_end = getelementptr inbounds %struct.vhost_dev, ptr %16, i32 0, i32 11
  %17 = load i32, ptr %vq_index_end, align 8
  %cmp7 = icmp eq i32 %add, %17
  br i1 %cmp7, label %if.then8, label %if.else12

if.then8:                                         ; preds = %if.end4
  br label %do.body

do.body:                                          ; preds = %if.then8
  store ptr @vhost_iova_tree_delete, ptr %_destroy, align 8
  %18 = load ptr, ptr %s, align 8
  %vhost_vdpa9 = getelementptr inbounds %struct.VhostVDPAState, ptr %18, i32 0, i32 1
  %iova_tree = getelementptr inbounds %struct.vhost_vdpa, ptr %vhost_vdpa9, i32 0, i32 11
  store ptr %iova_tree, ptr %_pp, align 8
  %19 = load ptr, ptr %_pp, align 8
  %20 = load ptr, ptr %19, align 8
  store ptr %20, ptr %_p, align 8
  %21 = load ptr, ptr %_p, align 8
  %tobool = icmp ne ptr %21, null
  br i1 %tobool, label %if.then10, label %if.end11

if.then10:                                        ; preds = %do.body
  %22 = load ptr, ptr %_pp, align 8
  store ptr null, ptr %22, align 8
  %23 = load ptr, ptr %_destroy, align 8
  %24 = load ptr, ptr %_p, align 8
  call void %23(ptr noundef %24)
  br label %if.end11

if.end11:                                         ; preds = %if.then10, %do.body
  br label %do.end

do.end:                                           ; preds = %if.end11
  br label %if.end15

if.else12:                                        ; preds = %if.end4
  %25 = load ptr, ptr %s, align 8
  %vhost_vdpa13 = getelementptr inbounds %struct.VhostVDPAState, ptr %25, i32 0, i32 1
  %iova_tree14 = getelementptr inbounds %struct.vhost_vdpa, ptr %vhost_vdpa13, i32 0, i32 11
  store ptr null, ptr %iova_tree14, align 8
  br label %if.end15

if.end15:                                         ; preds = %if.else12, %do.end
  ret void
}