; Function Attrs: nounwind sspstrong uwtable
define internal void @vhost_vdpa_net_client_stop(ptr noundef %nc) #0 {
entry:
  %0 = load ptr, ptr %nc, align 8
  %1 = load i32, ptr %0, align 8
  %cmp = icmp eq i32 %1, 13
  br i1 %cmp, label %if.end, label %if.else

if.else:                                          ; preds = %entry
  tail call void @__assert_fail(ptr noundef nonnull @.str, ptr noundef nonnull @.str.1, i32 noundef 408, ptr noundef nonnull @__PRETTY_FUNCTION__.vhost_vdpa_net_client_stop) #12
  unreachable

if.end:                                           ; preds = %entry
  %index = getelementptr inbounds nuw i8, ptr %nc, i64 388
  %2 = load i32, ptr %index, align 4
  %cmp2 = icmp eq i32 %2, 0
  br i1 %cmp2, label %if.then3, label %if.end4

if.then3:                                         ; preds = %if.end
  %migration_state = getelementptr inbounds nuw i8, ptr %nc, i64 295664
  tail call void @migration_remove_notifier(ptr noundef nonnull %migration_state) #13
  br label %if.end4

if.end4:                                          ; preds = %if.then3, %if.end
  %dev6 = getelementptr inbounds nuw i8, ptr %nc, i64 664
  %3 = load ptr, ptr %dev6, align 8
  %vq_index = getelementptr inbounds nuw i8, ptr %3, i64 444
  %4 = load i32, ptr %vq_index, align 4
  %nvqs = getelementptr inbounds nuw i8, ptr %3, i64 440
  %5 = load i32, ptr %nvqs, align 8
  %add = add i32 %5, %4
  %vq_index_end = getelementptr inbounds nuw i8, ptr %3, i64 448
  %6 = load i32, ptr %vq_index_end, align 8
  %cmp7 = icmp eq i32 %add, %6
  %iova_tree = getelementptr inbounds nuw i8, ptr %nc, i64 632
  br i1 %cmp7, label %do.body, label %if.else12

do.body:                                          ; preds = %if.end4
  %7 = load ptr, ptr %iova_tree, align 8
  %tobool.not = icmp eq ptr %7, null
  br i1 %tobool.not, label %if.end15, label %if.then10

if.then10:                                        ; preds = %do.body
  store ptr null, ptr %iova_tree, align 8
  tail call void @vhost_iova_tree_delete(ptr noundef nonnull %7) #13
  br label %if.end15

if.else12:                                        ; preds = %if.end4
  store ptr null, ptr %iova_tree, align 8
  br label %if.end15

if.end15:                                         ; preds = %if.then10, %do.body, %if.else12
  ret void
}